target datalayout = "e-m:e-p270:32:32-p271:32:32-p272:64:64-i64:64-i128:128-f80:128-n8:16:32:64-S128"
target triple = "x86_64-pc-linux-gnu"

@.str.99 = private unnamed_addr constant [1 x i8] zeroinitializer, align 1
@.str.107 = private unnamed_addr constant [10 x i8] c"lightgrey\00", align 1
@N_fillcolor = external global ptr, align 8
@N_color = external global ptr, align 8

; Function Attrs: nounwind uwtable
define internal ptr @findFillDflt(ptr noundef %0, ptr noundef %1) #0 {
  %3 = alloca ptr, align 8
  %4 = alloca ptr, align 8
  %5 = alloca ptr, align 8
  store ptr %0, ptr %3, align 8, !tbaa !35
  store ptr %1, ptr %4, align 8, !tbaa !75
  call void @llvm.lifetime.start.p0(i64 8, ptr %5) #13
  %6 = load ptr, ptr %3, align 8, !tbaa !35
  %7 = load ptr, ptr @N_fillcolor, align 8, !tbaa !72
  %8 = call ptr @late_nnstring(ptr noundef %6, ptr noundef %7, ptr noundef @.str.99)
  store ptr %8, ptr %5, align 8, !tbaa !75
  %9 = load ptr, ptr %5, align 8, !tbaa !75
  %10 = getelementptr inbounds i8, ptr %9, i64 0
  %11 = load i8, ptr %10, align 1, !tbaa !98
  %12 = icmp ne i8 %11, 0
  br i1 %12, label %24, label %13

13:                                               ; preds = %2
  %14 = load ptr, ptr %3, align 8, !tbaa !35
  %15 = load ptr, ptr @N_color, align 8, !tbaa !72
  %16 = call ptr @late_nnstring(ptr noundef %14, ptr noundef %15, ptr noundef @.str.99)
  store ptr %16, ptr %5, align 8, !tbaa !75
  %17 = load ptr, ptr %5, align 8, !tbaa !75
  %18 = getelementptr inbounds i8, ptr %17, i64 0
  %19 = load i8, ptr %18, align 1, !tbaa !98
  %20 = icmp ne i8 %19, 0
  br i1 %20, label %23, label %21

21:                                               ; preds = %13
  %22 = load ptr, ptr %4, align 8, !tbaa !75
  store ptr %22, ptr %5, align 8, !tbaa !75
  br label %23

23:                                               ; preds = %21, %13
  br label %24

24:                                               ; preds = %23, %2
  %25 = load ptr, ptr %5, align 8, !tbaa !75
  call void @llvm.lifetime.end.p0(i64 8, ptr %5) #13
  ret ptr %25
}

; Function Attrs: nounwind uwtable
define internal ptr @findFill(ptr noundef %0) #0 {
  %2 = alloca ptr, align 8
  store ptr %0, ptr %2, align 8, !tbaa !35
  %3 = load ptr, ptr %2, align 8, !tbaa !35
  %4 = call ptr @findFillDflt(ptr noundef %3, ptr noundef @.str.107)
  ret ptr %4
}