; Function Attrs: nounwind uwtable
define internal fastcc ptr @findFill(ptr noundef %0) unnamed_addr #0 {
  %2 = load ptr, ptr @N_fillcolor, align 8, !tbaa !56
  %3 = tail call ptr @late_nnstring(ptr noundef %0, ptr noundef %2, ptr noundef nonnull @.str.99) #26
  %4 = load i8, ptr %3, align 1, !tbaa !81
  %.not.i = icmp eq i8 %4, 0
  br i1 %.not.i, label %5, label %findFillDflt.exit

5:                                                ; preds = %1
  %6 = load ptr, ptr @N_color, align 8, !tbaa !56
  %7 = tail call ptr @late_nnstring(ptr noundef %0, ptr noundef %6, ptr noundef nonnull @.str.99) #26
  %8 = load i8, ptr %7, align 1, !tbaa !81
  %.not6.i = icmp eq i8 %8, 0
  %spec.select.i = select i1 %.not6.i, ptr @.str.107, ptr %7
  br label %findFillDflt.exit

findFillDflt.exit:                                ; preds = %1, %5
  %.0.i = phi ptr [ %3, %1 ], [ %spec.select.i, %5 ]
  ret ptr %.0.i
}